target datalayout = "e-m:e-p270:32:32-p271:32:32-p272:64:64-i64:64-i128:128-f80:128-n8:16:32:64-S128"
target triple = "x86_64-pc-linux-gnu"

%struct.scene_dsc_t = type { ptr, ptr }

; Function Attrs: nounwind uwtable
define ptr @lv_demo_render_get_scene_name(i32 noundef %0) #0 {
  %2 = alloca ptr, align 8
  %3 = alloca i32, align 4
  store i32 %0, ptr %3, align 4, !tbaa !3
  %4 = load i32, ptr %3, align 4, !tbaa !3
  %5 = icmp ugt i32 %4, 14
  br i1 %5, label %6, label %7

6:                                                ; preds = %1
  store ptr null, ptr %2, align 8
  br label %13

7:                                                ; preds = %1
  %8 = load i32, ptr %3, align 4, !tbaa !3
  %9 = zext i32 %8 to i64
  %10 = getelementptr inbounds nuw [15 x %struct.scene_dsc_t], ptr @scenes, i64 0, i64 %9
  %11 = getelementptr inbounds nuw %struct.scene_dsc_t, ptr %10, i32 0, i32 0
  %12 = load ptr, ptr %11, align 16, !tbaa !14
  store ptr %12, ptr %2, align 8
  br label %13

13:                                               ; preds = %7, %6
  %14 = load ptr, ptr %2, align 8
  ret ptr %14
}