; Function Attrs: mustprogress nofree norecurse nosync nounwind willreturn memory(none) uwtable
define ptr @lv_demo_render_get_scene_name(i32 noundef %0) local_unnamed_addr #4 {
  %2 = icmp ugt i32 %0, 14
  br i1 %2, label %7, label %3

3:                                                ; preds = %1
  %4 = zext nneg i32 %0 to i64
  %5 = getelementptr inbounds nuw [15 x %struct.scene_dsc_t], ptr @scenes, i64 0, i64 %4
  %6 = load ptr, ptr %5, align 16, !tbaa !10
  br label %7

7:                                                ; preds = %1, %3
  %.0 = phi ptr [ %6, %3 ], [ null, %1 ]
  ret ptr %.0
}